target datalayout = "e-m:e-p270:32:32-p271:32:32-p272:64:64-i64:64-i128:128-f80:128-n8:16:32:64-S128"
target triple = "x86_64-pc-linux-gnu"

%"class.std::__cxx11::basic_string" = type { %"struct.std::__cxx11::basic_string<char>::_Alloc_hider", i64, %union.anon }
%"struct.std::__cxx11::basic_string<char>::_Alloc_hider" = type { ptr }
%union.anon = type { i64, [8 x i8] }
%"class.std::allocator.5" = type { i8 }
%"class.std::initializer_list.63" = type { ptr, i64 }

@.str.74 = private unnamed_addr constant [1 x i8] zeroinitializer, align 1
@.str.227 = private unnamed_addr constant [35 x i8] c"/etc/ssl/certs/ca-certificates.crt\00", align 1
@.str.228 = private unnamed_addr constant [58 x i8] c"/nix/var/nix/profiles/default/etc/ssl/certs/ca-bundle.crt\00", align 1

; Function Attrs: mustprogress nounwind uwtable
define linkonce_odr noundef i64 @_ZNKSt16initializer_listIPKcE4sizeEv(ptr noundef nonnull align 8 dereferenceable(16) %0) #2 comdat align 2 {
  %2 = alloca ptr, align 8
  store ptr %0, ptr %2, align 8
  %3 = load ptr, ptr %2, align 8
  %4 = getelementptr inbounds %"class.std::initializer_list.63", ptr %3, i32 0, i32 1
  %5 = load i64, ptr %4, align 8
  ret i64 %5
}

; Function Attrs: mustprogress nounwind uwtable
define linkonce_odr noundef ptr @_ZNKSt16initializer_listIPKcE3endEv(ptr noundef nonnull align 8 dereferenceable(16) %0) #2 comdat align 2 {
  %2 = alloca ptr, align 8
  store ptr %0, ptr %2, align 8
  %3 = load ptr, ptr %2, align 8
  %4 = call noundef ptr @_ZNKSt16initializer_listIPKcE5beginEv(ptr noundef nonnull align 8 dereferenceable(16) %3) #1
  %5 = call noundef i64 @_ZNKSt16initializer_listIPKcE4sizeEv(ptr noundef nonnull align 8 dereferenceable(16) %3) #1
  %6 = getelementptr inbounds ptr, ptr %4, i64 %5
  ret ptr %6
}

; Function Attrs: mustprogress nounwind uwtable
define linkonce_odr noundef ptr @_ZNKSt16initializer_listIPKcE5beginEv(ptr noundef nonnull align 8 dereferenceable(16) %0) #2 comdat align 2 {
  %2 = alloca ptr, align 8
  store ptr %0, ptr %2, align 8
  %3 = load ptr, ptr %2, align 8
  %4 = getelementptr inbounds %"class.std::initializer_list.63", ptr %3, i32 0, i32 0
  %5 = load ptr, ptr %4, align 8
  ret ptr %5
}

; Function Attrs: mustprogress uwtable
define void @_ZN3nix8Settings21getDefaultSSLCertFileB5cxx11Ev(ptr dead_on_unwind noalias writable sret(%"class.std::__cxx11::basic_string") align 8 %0, ptr noundef nonnull align 8 dereferenceable(12776) %1) #5 align 2 personality ptr @__gxx_personality_v0 {
  %3 = alloca ptr, align 8
  %4 = alloca ptr, align 8
  %5 = alloca ptr, align 8
  %6 = alloca %"class.std::initializer_list.63", align 8
  %7 = alloca [2 x ptr], align 8
  %8 = alloca ptr, align 8
  %9 = alloca ptr, align 8
  %10 = alloca ptr, align 8
  %11 = alloca %"class.std::__cxx11::basic_string", align 8
  %12 = alloca %"class.std::allocator.5", align 1
  %13 = alloca ptr, align 8
  %14 = alloca i32, align 4
  %15 = alloca %"class.std::allocator.5", align 1
  %16 = alloca %"class.std::allocator.5", align 1
  store ptr %0, ptr %3, align 8
  store ptr %1, ptr %4, align 8
  %17 = getelementptr inbounds [2 x ptr], ptr %7, i64 0, i64 0
  store ptr @.str.227, ptr %17, align 8
  %18 = getelementptr inbounds ptr, ptr %17, i64 1
  store ptr @.str.228, ptr %18, align 8
  %19 = getelementptr inbounds %"class.std::initializer_list.63", ptr %6, i32 0, i32 0
  %20 = getelementptr inbounds [2 x ptr], ptr %7, i64 0, i64 0
  store ptr %20, ptr %19, align 8
  %21 = getelementptr inbounds %"class.std::initializer_list.63", ptr %6, i32 0, i32 1
  store i64 2, ptr %21, align 8
  store ptr %6, ptr %5, align 8
  %22 = load ptr, ptr %5, align 8
  %23 = call noundef ptr @_ZNKSt16initializer_listIPKcE5beginEv(ptr noundef nonnull align 8 dereferenceable(16) %22) #1
  store ptr %23, ptr %8, align 8
  %24 = load ptr, ptr %5, align 8
  %25 = call noundef ptr @_ZNKSt16initializer_listIPKcE3endEv(ptr noundef nonnull align 8 dereferenceable(16) %24) #1
  store ptr %25, ptr %9, align 8
  br label %26

26:                                               ; preds = %55, %2
  %27 = load ptr, ptr %8, align 8
  %28 = load ptr, ptr %9, align 8
  %29 = icmp ne ptr %27, %28
  br i1 %29, label %30, label %58

30:                                               ; preds = %26
  %31 = load ptr, ptr %8, align 8
  store ptr %31, ptr %10, align 8
  %32 = load ptr, ptr %10, align 8
  %33 = load ptr, ptr %32, align 8
  call void @_ZNSaIcEC1Ev(ptr noundef nonnull align 1 dereferenceable(1) %12) #1
  invoke void @_ZNSt7__cxx1112basic_stringIcSt11char_traitsIcESaIcEEC2IS3_EEPKcRKS3_(ptr noundef nonnull align 8 dereferenceable(32) %11, ptr noundef %33, ptr noundef nonnull align 1 dereferenceable(1) %12)
          to label %34 unwind label %41

34:                                               ; preds = %30
  %35 = invoke noundef zeroext i1 @_ZN3nix14pathAccessibleERKNSt7__cxx1112basic_stringIcSt11char_traitsIcESaIcEEE(ptr noundef nonnull align 8 dereferenceable(32) %11)
          to label %36 unwind label %45

36:                                               ; preds = %34
  call void @_ZNSt7__cxx1112basic_stringIcSt11char_traitsIcESaIcEED2Ev(ptr noundef nonnull align 8 dereferenceable(32) %11) #1
  call void @_ZNSaIcED1Ev(ptr noundef nonnull align 1 dereferenceable(1) %12) #1
  br i1 %35, label %37, label %54

37:                                               ; preds = %36
  %38 = load ptr, ptr %10, align 8
  %39 = load ptr, ptr %38, align 8
  call void @_ZNSaIcEC1Ev(ptr noundef nonnull align 1 dereferenceable(1) %15) #1
  invoke void @_ZNSt7__cxx1112basic_stringIcSt11char_traitsIcESaIcEEC2IS3_EEPKcRKS3_(ptr noundef nonnull align 8 dereferenceable(32) %0, ptr noundef %39, ptr noundef nonnull align 1 dereferenceable(1) %15)
          to label %40 unwind label %50

40:                                               ; preds = %37
  call void @_ZNSaIcED1Ev(ptr noundef nonnull align 1 dereferenceable(1) %15) #1
  br label %64

41:                                               ; preds = %30
  %42 = landingpad { ptr, i32 }
          cleanup
  %43 = extractvalue { ptr, i32 } %42, 0
  store ptr %43, ptr %13, align 8
  %44 = extractvalue { ptr, i32 } %42, 1
  store i32 %44, ptr %14, align 4
  br label %49

45:                                               ; preds = %34
  %46 = landingpad { ptr, i32 }
          cleanup
  %47 = extractvalue { ptr, i32 } %46, 0
  store ptr %47, ptr %13, align 8
  %48 = extractvalue { ptr, i32 } %46, 1
  store i32 %48, ptr %14, align 4
  call void @_ZNSt7__cxx1112basic_stringIcSt11char_traitsIcESaIcEED2Ev(ptr noundef nonnull align 8 dereferenceable(32) %11) #1
  br label %49

49:                                               ; preds = %45, %41
  call void @_ZNSaIcED1Ev(ptr noundef nonnull align 1 dereferenceable(1) %12) #1
  br label %65

50:                                               ; preds = %37
  %51 = landingpad { ptr, i32 }
          cleanup
  %52 = extractvalue { ptr, i32 } %51, 0
  store ptr %52, ptr %13, align 8
  %53 = extractvalue { ptr, i32 } %51, 1
  store i32 %53, ptr %14, align 4
  call void @_ZNSaIcED1Ev(ptr noundef nonnull align 1 dereferenceable(1) %15) #1
  br label %65

54:                                               ; preds = %36
  br label %55

55:                                               ; preds = %54
  %56 = load ptr, ptr %8, align 8
  %57 = getelementptr inbounds ptr, ptr %56, i32 1
  store ptr %57, ptr %8, align 8
  br label %26

58:                                               ; preds = %26
  call void @_ZNSaIcEC1Ev(ptr noundef nonnull align 1 dereferenceable(1) %16) #1
  invoke void @_ZNSt7__cxx1112basic_stringIcSt11char_traitsIcESaIcEEC2IS3_EEPKcRKS3_(ptr noundef nonnull align 8 dereferenceable(32) %0, ptr noundef @.str.74, ptr noundef nonnull align 1 dereferenceable(1) %16)
          to label %59 unwind label %60

59:                                               ; preds = %58
  call void @_ZNSaIcED1Ev(ptr noundef nonnull align 1 dereferenceable(1) %16) #1
  br label %64

60:                                               ; preds = %58
  %61 = landingpad { ptr, i32 }
          cleanup
  %62 = extractvalue { ptr, i32 } %61, 0
  store ptr %62, ptr %13, align 8
  %63 = extractvalue { ptr, i32 } %61, 1
  store i32 %63, ptr %14, align 4
  call void @_ZNSaIcED1Ev(ptr noundef nonnull align 1 dereferenceable(1) %16) #1
  br label %65

64:                                               ; preds = %59, %40
  ret void

65:                                               ; preds = %60, %50, %49
  %66 = load ptr, ptr %13, align 8
  %67 = load i32, ptr %14, align 4
  %68 = insertvalue { ptr, i32 } poison, ptr %66, 0
  %69 = insertvalue { ptr, i32 } %68, i32 %67, 1
  resume { ptr, i32 } %69
}