; Function Attrs: mustprogress uwtable
define void @_ZN3nix8Settings21getDefaultSSLCertFileB5cxx11Ev(ptr dead_on_unwind noalias writable sret(%"class.std::__cxx11::basic_string") align 8 %0, ptr nocapture nonnull readnone align 8 %1) local_unnamed_addr #5 align 2 personality ptr @__gxx_personality_v0 {
  %3 = alloca [2 x ptr], align 8
  %4 = alloca %"class.std::__cxx11::basic_string", align 8
  %5 = alloca %"class.std::allocator.5", align 1
  %6 = alloca %"class.std::allocator.5", align 1
  %7 = alloca %"class.std::allocator.5", align 1
  store ptr @.str.227, ptr %3, align 8
  %8 = getelementptr inbounds i8, ptr %3, i64 8
  store ptr @.str.228, ptr %8, align 8
  %9 = getelementptr inbounds i8, ptr %4, i64 16
  %10 = getelementptr inbounds i8, ptr %4, i64 8
  br label %12

11:                                               ; preds = %_ZNSt7__cxx1112basic_stringIcSt11char_traitsIcESaIcEED2Ev.exit
  %.011.add = add nuw nsw i64 %.011.idx19, 8
  %.not = icmp eq i64 %.011.add, 16
  br i1 %.not, label %28, label %12

12:                                               ; preds = %2, %11
  %.011.idx19 = phi i64 [ 0, %2 ], [ %.011.add, %11 ]
  %.011.ptr20 = getelementptr inbounds i8, ptr %3, i64 %.011.idx19
  %13 = load ptr, ptr %.011.ptr20, align 8
  call void @_ZNSaIcEC1Ev(ptr noundef nonnull align 1 dereferenceable(1) %5) #28
  invoke void @_ZNSt7__cxx1112basic_stringIcSt11char_traitsIcESaIcEEC2IS3_EEPKcRKS3_(ptr noundef nonnull align 8 dereferenceable(32) %4, ptr noundef %13, ptr noundef nonnull align 1 dereferenceable(1) %5)
          to label %14 unwind label %22

14:                                               ; preds = %12
  %15 = invoke noundef zeroext i1 @_ZN3nix14pathAccessibleERKNSt7__cxx1112basic_stringIcSt11char_traitsIcESaIcEEE(ptr noundef nonnull align 8 dereferenceable(32) %4)
          to label %16 unwind label %24

16:                                               ; preds = %14
  %17 = load ptr, ptr %4, align 8
  %18 = icmp eq ptr %17, %9
  br i1 %18, label %_ZNKSt7__cxx1112basic_stringIcSt11char_traitsIcESaIcEE11_M_is_localEv.exit.thread.i.i, label %_ZNKSt7__cxx1112basic_stringIcSt11char_traitsIcESaIcEE11_M_is_localEv.exit.i.i

_ZNKSt7__cxx1112basic_stringIcSt11char_traitsIcESaIcEE11_M_is_localEv.exit.thread.i.i: ; preds = %16
  %19 = load i64, ptr %10, align 8
  %20 = icmp ult i64 %19, 16
  call void @llvm.assume(i1 %20)
  br label %_ZNSt7__cxx1112basic_stringIcSt11char_traitsIcESaIcEED2Ev.exit

_ZNKSt7__cxx1112basic_stringIcSt11char_traitsIcESaIcEE11_M_is_localEv.exit.i.i: ; preds = %16
  call void @_ZdlPv(ptr noundef %17) #29
  br label %_ZNSt7__cxx1112basic_stringIcSt11char_traitsIcESaIcEED2Ev.exit

_ZNSt7__cxx1112basic_stringIcSt11char_traitsIcESaIcEED2Ev.exit: ; preds = %_ZNKSt7__cxx1112basic_stringIcSt11char_traitsIcESaIcEE11_M_is_localEv.exit.thread.i.i, %_ZNKSt7__cxx1112basic_stringIcSt11char_traitsIcESaIcEE11_M_is_localEv.exit.i.i
  call void @_ZNSaIcED2Ev(ptr noundef nonnull align 1 dereferenceable(1) %4) #28
  call void @_ZNSaIcED1Ev(ptr noundef nonnull align 1 dereferenceable(1) %5) #28
  br i1 %15, label %21, label %11

21:                                               ; preds = %_ZNSt7__cxx1112basic_stringIcSt11char_traitsIcESaIcEED2Ev.exit
  call void @_ZNSaIcEC1Ev(ptr noundef nonnull align 1 dereferenceable(1) %6) #28
  invoke void @_ZNSt7__cxx1112basic_stringIcSt11char_traitsIcESaIcEEC2IS3_EEPKcRKS3_(ptr noundef nonnull align 8 dereferenceable(32) %0, ptr noundef %13, ptr noundef nonnull align 1 dereferenceable(1) %6)
          to label %31 unwind label %26

22:                                               ; preds = %12
  %23 = landingpad { ptr, i32 }
          cleanup
  br label %32

24:                                               ; preds = %14
  %25 = landingpad { ptr, i32 }
          cleanup
  call void @_ZNSt7__cxx1112basic_stringIcSt11char_traitsIcESaIcEED2Ev(ptr noundef nonnull align 8 dereferenceable(32) %4) #28
  br label %32

26:                                               ; preds = %21
  %27 = landingpad { ptr, i32 }
          cleanup
  br label %32

28:                                               ; preds = %11
  call void @_ZNSaIcEC1Ev(ptr noundef nonnull align 1 dereferenceable(1) %7) #28
  invoke void @_ZNSt7__cxx1112basic_stringIcSt11char_traitsIcESaIcEEC2IS3_EEPKcRKS3_(ptr noundef nonnull align 8 dereferenceable(32) %0, ptr noundef nonnull @.str.74, ptr noundef nonnull align 1 dereferenceable(1) %7)
          to label %31 unwind label %29

29:                                               ; preds = %28
  %30 = landingpad { ptr, i32 }
          cleanup
  br label %32

31:                                               ; preds = %28, %21
  %.sink = phi ptr [ %6, %21 ], [ %7, %28 ]
  call void @_ZNSaIcED1Ev(ptr noundef nonnull align 1 dereferenceable(1) %.sink) #28
  ret void

32:                                               ; preds = %22, %24, %29, %26
  %.sink27 = phi ptr [ %7, %29 ], [ %6, %26 ], [ %5, %24 ], [ %5, %22 ]
  %.pn13 = phi { ptr, i32 } [ %30, %29 ], [ %27, %26 ], [ %25, %24 ], [ %23, %22 ]
  call void @_ZNSaIcED1Ev(ptr noundef nonnull align 1 dereferenceable(1) %.sink27) #28
  resume { ptr, i32 } %.pn13
}